target datalayout = "e-m:e-p270:32:32-p271:32:32-p272:64:64-i64:64-i128:128-f80:128-n8:16:32:64-S128"
target triple = "x86_64-pc-linux-gnu"

@.str.14 = private unnamed_addr constant [3 x i8] c"\01\1E\00", align 1

; Function Attrs: mustprogress optsize uwtable
define internal noundef i32 @_ZN5ZXing10DataMatrix13DMTextEncoderL10EncodeCharEiRNSt7__cxx1112basic_stringIcSt11char_traitsIcESaIcEEE(i32 noundef %0, ptr noundef nonnull align 8 dereferenceable(32) %1) #0 {
  %3 = alloca i32, align 4
  %4 = alloca i32, align 4
  %5 = alloca ptr, align 8
  %6 = alloca i32, align 4
  store i32 %0, ptr %4, align 4, !tbaa !12
  store ptr %1, ptr %5, align 8, !tbaa !26
  %7 = load i32, ptr %4, align 4, !tbaa !12
  %8 = icmp eq i32 %7, 32
  br i1 %8, label %9, label %11

9:                                                ; preds = %2
  %10 = load ptr, ptr %5, align 8, !tbaa !26
  call void @_ZNSt7__cxx1112basic_stringIcSt11char_traitsIcESaIcEE9push_backEc(ptr noundef nonnull align 8 dereferenceable(32) %10, i8 noundef signext 3) #19
  store i32 1, ptr %3, align 4
  br label %117

11:                                               ; preds = %2
  %12 = load i32, ptr %4, align 4, !tbaa !12
  %13 = icmp sge i32 %12, 48
  br i1 %13, label %14, label %23

14:                                               ; preds = %11
  %15 = load i32, ptr %4, align 4, !tbaa !12
  %16 = icmp sle i32 %15, 57
  br i1 %16, label %17, label %23

17:                                               ; preds = %14
  %18 = load ptr, ptr %5, align 8, !tbaa !26
  %19 = load i32, ptr %4, align 4, !tbaa !12
  %20 = sub nsw i32 %19, 48
  %21 = add nsw i32 %20, 4
  %22 = trunc i32 %21 to i8
  call void @_ZNSt7__cxx1112basic_stringIcSt11char_traitsIcESaIcEE9push_backEc(ptr noundef nonnull align 8 dereferenceable(32) %18, i8 noundef signext %22) #19
  store i32 1, ptr %3, align 4
  br label %117

23:                                               ; preds = %14, %11
  %24 = load i32, ptr %4, align 4, !tbaa !12
  %25 = icmp sge i32 %24, 97
  br i1 %25, label %26, label %35

26:                                               ; preds = %23
  %27 = load i32, ptr %4, align 4, !tbaa !12
  %28 = icmp sle i32 %27, 122
  br i1 %28, label %29, label %35

29:                                               ; preds = %26
  %30 = load ptr, ptr %5, align 8, !tbaa !26
  %31 = load i32, ptr %4, align 4, !tbaa !12
  %32 = sub nsw i32 %31, 97
  %33 = add nsw i32 %32, 14
  %34 = trunc i32 %33 to i8
  call void @_ZNSt7__cxx1112basic_stringIcSt11char_traitsIcESaIcEE9push_backEc(ptr noundef nonnull align 8 dereferenceable(32) %30, i8 noundef signext %34) #19
  store i32 1, ptr %3, align 4
  br label %117

35:                                               ; preds = %26, %23
  %36 = load i32, ptr %4, align 4, !tbaa !12
  %37 = icmp sge i32 %36, 0
  br i1 %37, label %38, label %46

38:                                               ; preds = %35
  %39 = load i32, ptr %4, align 4, !tbaa !12
  %40 = icmp sle i32 %39, 31
  br i1 %40, label %41, label %46

41:                                               ; preds = %38
  %42 = load ptr, ptr %5, align 8, !tbaa !26
  call void @_ZNSt7__cxx1112basic_stringIcSt11char_traitsIcESaIcEE9push_backEc(ptr noundef nonnull align 8 dereferenceable(32) %42, i8 noundef signext 0) #19
  %43 = load ptr, ptr %5, align 8, !tbaa !26
  %44 = load i32, ptr %4, align 4, !tbaa !12
  %45 = trunc i32 %44 to i8
  call void @_ZNSt7__cxx1112basic_stringIcSt11char_traitsIcESaIcEE9push_backEc(ptr noundef nonnull align 8 dereferenceable(32) %43, i8 noundef signext %45) #19
  store i32 2, ptr %3, align 4
  br label %117

46:                                               ; preds = %38, %35
  %47 = load i32, ptr %4, align 4, !tbaa !12
  %48 = icmp sle i32 %47, 47
  br i1 %48, label %49, label %55

49:                                               ; preds = %46
  %50 = load ptr, ptr %5, align 8, !tbaa !26
  call void @_ZNSt7__cxx1112basic_stringIcSt11char_traitsIcESaIcEE9push_backEc(ptr noundef nonnull align 8 dereferenceable(32) %50, i8 noundef signext 1) #19
  %51 = load ptr, ptr %5, align 8, !tbaa !26
  %52 = load i32, ptr %4, align 4, !tbaa !12
  %53 = sub nsw i32 %52, 33
  %54 = trunc i32 %53 to i8
  call void @_ZNSt7__cxx1112basic_stringIcSt11char_traitsIcESaIcEE9push_backEc(ptr noundef nonnull align 8 dereferenceable(32) %51, i8 noundef signext %54) #19
  store i32 2, ptr %3, align 4
  br label %117

55:                                               ; preds = %46
  %56 = load i32, ptr %4, align 4, !tbaa !12
  %57 = icmp sle i32 %56, 64
  br i1 %57, label %58, label %65

58:                                               ; preds = %55
  %59 = load ptr, ptr %5, align 8, !tbaa !26
  call void @_ZNSt7__cxx1112basic_stringIcSt11char_traitsIcESaIcEE9push_backEc(ptr noundef nonnull align 8 dereferenceable(32) %59, i8 noundef signext 1) #19
  %60 = load ptr, ptr %5, align 8, !tbaa !26
  %61 = load i32, ptr %4, align 4, !tbaa !12
  %62 = sub nsw i32 %61, 58
  %63 = add nsw i32 %62, 15
  %64 = trunc i32 %63 to i8
  call void @_ZNSt7__cxx1112basic_stringIcSt11char_traitsIcESaIcEE9push_backEc(ptr noundef nonnull align 8 dereferenceable(32) %60, i8 noundef signext %64) #19
  store i32 2, ptr %3, align 4
  br label %117

65:                                               ; preds = %55
  %66 = load i32, ptr %4, align 4, !tbaa !12
  %67 = icmp sge i32 %66, 91
  br i1 %67, label %68, label %78

68:                                               ; preds = %65
  %69 = load i32, ptr %4, align 4, !tbaa !12
  %70 = icmp sle i32 %69, 95
  br i1 %70, label %71, label %78

71:                                               ; preds = %68
  %72 = load ptr, ptr %5, align 8, !tbaa !26
  call void @_ZNSt7__cxx1112basic_stringIcSt11char_traitsIcESaIcEE9push_backEc(ptr noundef nonnull align 8 dereferenceable(32) %72, i8 noundef signext 1) #19
  %73 = load ptr, ptr %5, align 8, !tbaa !26
  %74 = load i32, ptr %4, align 4, !tbaa !12
  %75 = sub nsw i32 %74, 91
  %76 = add nsw i32 %75, 22
  %77 = trunc i32 %76 to i8
  call void @_ZNSt7__cxx1112basic_stringIcSt11char_traitsIcESaIcEE9push_backEc(ptr noundef nonnull align 8 dereferenceable(32) %73, i8 noundef signext %77) #19
  store i32 2, ptr %3, align 4
  br label %117

78:                                               ; preds = %68, %65
  %79 = load i32, ptr %4, align 4, !tbaa !12
  %80 = icmp eq i32 %79, 96
  br i1 %80, label %81, label %87

81:                                               ; preds = %78
  %82 = load ptr, ptr %5, align 8, !tbaa !26
  call void @_ZNSt7__cxx1112basic_stringIcSt11char_traitsIcESaIcEE9push_backEc(ptr noundef nonnull align 8 dereferenceable(32) %82, i8 noundef signext 2) #19
  %83 = load ptr, ptr %5, align 8, !tbaa !26
  %84 = load i32, ptr %4, align 4, !tbaa !12
  %85 = sub nsw i32 %84, 96
  %86 = trunc i32 %85 to i8
  call void @_ZNSt7__cxx1112basic_stringIcSt11char_traitsIcESaIcEE9push_backEc(ptr noundef nonnull align 8 dereferenceable(32) %83, i8 noundef signext %86) #19
  store i32 2, ptr %3, align 4
  br label %117

87:                                               ; preds = %78
  %88 = load i32, ptr %4, align 4, !tbaa !12
  %89 = icmp sle i32 %88, 90
  br i1 %89, label %90, label %97

90:                                               ; preds = %87
  %91 = load ptr, ptr %5, align 8, !tbaa !26
  call void @_ZNSt7__cxx1112basic_stringIcSt11char_traitsIcESaIcEE9push_backEc(ptr noundef nonnull align 8 dereferenceable(32) %91, i8 noundef signext 2) #19
  %92 = load ptr, ptr %5, align 8, !tbaa !26
  %93 = load i32, ptr %4, align 4, !tbaa !12
  %94 = sub nsw i32 %93, 65
  %95 = add nsw i32 %94, 1
  %96 = trunc i32 %95 to i8
  call void @_ZNSt7__cxx1112basic_stringIcSt11char_traitsIcESaIcEE9push_backEc(ptr noundef nonnull align 8 dereferenceable(32) %92, i8 noundef signext %96) #19
  store i32 2, ptr %3, align 4
  br label %117

97:                                               ; preds = %87
  %98 = load i32, ptr %4, align 4, !tbaa !12
  %99 = icmp sle i32 %98, 127
  br i1 %99, label %100, label %107

100:                                              ; preds = %97
  %101 = load ptr, ptr %5, align 8, !tbaa !26
  call void @_ZNSt7__cxx1112basic_stringIcSt11char_traitsIcESaIcEE9push_backEc(ptr noundef nonnull align 8 dereferenceable(32) %101, i8 noundef signext 2) #19
  %102 = load ptr, ptr %5, align 8, !tbaa !26
  %103 = load i32, ptr %4, align 4, !tbaa !12
  %104 = sub nsw i32 %103, 123
  %105 = add nsw i32 %104, 27
  %106 = trunc i32 %105 to i8
  call void @_ZNSt7__cxx1112basic_stringIcSt11char_traitsIcESaIcEE9push_backEc(ptr noundef nonnull align 8 dereferenceable(32) %102, i8 noundef signext %106) #19
  store i32 2, ptr %3, align 4
  br label %117

107:                                              ; preds = %97
  %108 = load ptr, ptr %5, align 8, !tbaa !26
  %109 = call noundef nonnull align 8 dereferenceable(32) ptr @_ZNSt7__cxx1112basic_stringIcSt11char_traitsIcESaIcEE6appendEPKc(ptr noundef nonnull align 8 dereferenceable(32) %108, ptr noundef @.str.14) #19
  call void @llvm.lifetime.start.p0(i64 4, ptr %6) #20
  store i32 2, ptr %6, align 4, !tbaa !12
  %110 = load i32, ptr %4, align 4, !tbaa !12
  %111 = sub nsw i32 %110, 128
  %112 = load ptr, ptr %5, align 8, !tbaa !26
  %113 = call noundef i32 @_ZN5ZXing10DataMatrix13DMTextEncoderL10EncodeCharEiRNSt7__cxx1112basic_stringIcSt11char_traitsIcESaIcEEE(i32 noundef %111, ptr noundef nonnull align 8 dereferenceable(32) %112) #19
  %114 = load i32, ptr %6, align 4, !tbaa !12
  %115 = add nsw i32 %114, %113
  store i32 %115, ptr %6, align 4, !tbaa !12
  %116 = load i32, ptr %6, align 4, !tbaa !12
  store i32 %116, ptr %3, align 4
  call void @llvm.lifetime.end.p0(i64 4, ptr %6) #20
  br label %117

117:                                              ; preds = %107, %100, %90, %81, %71, %58, %49, %41, %29, %17, %9
  %118 = load i32, ptr %3, align 4
  ret i32 %118
}