; Function Attrs: mustprogress optsize uwtable
define internal noundef range(i32 -2147483646, -2147483648) i32 @_ZN5ZXing10DataMatrix13DMTextEncoderL10EncodeCharEiRNSt7__cxx1112basic_stringIcSt11char_traitsIcESaIcEEE(i32 noundef %0, ptr noundef nonnull align 8 dereferenceable(32) %1) #0 {
  %3 = icmp eq i32 %0, 32
  br i1 %3, label %tailrecurse._crit_edge, label %.lr.ph

.lr.ph:                                           ; preds = %2, %tailrecurse
  %.tr74 = phi i32 [ %45, %tailrecurse ], [ %0, %2 ]
  %accumulator.tr73 = phi i32 [ %46, %tailrecurse ], [ 0, %2 ]
  %4 = add i32 %.tr74, -48
  %or.cond = icmp ult i32 %4, 10
  br i1 %or.cond, label %5, label %8

5:                                                ; preds = %.lr.ph
  %6 = trunc nuw i32 %.tr74 to i8
  %7 = add nsw i8 %6, -44
  br label %tailrecurse._crit_edge

8:                                                ; preds = %.lr.ph
  %9 = add i32 %.tr74, -97
  %or.cond3 = icmp ult i32 %9, 26
  br i1 %or.cond3, label %10, label %13

10:                                               ; preds = %8
  %11 = trunc nuw i32 %.tr74 to i8
  %12 = add nsw i8 %11, -83
  br label %tailrecurse._crit_edge

13:                                               ; preds = %8
  %or.cond5 = icmp ult i32 %.tr74, 32
  br i1 %or.cond5, label %14, label %16

14:                                               ; preds = %13
  tail call void @_ZNSt7__cxx1112basic_stringIcSt11char_traitsIcESaIcEE9push_backEc(ptr noundef nonnull align 8 dereferenceable(32) %1, i8 noundef signext 0) #21
  %15 = trunc nuw i32 %.tr74 to i8
  br label %tailrecurse._crit_edge

16:                                               ; preds = %13
  %17 = icmp slt i32 %.tr74, 48
  br i1 %17, label %18, label %21

18:                                               ; preds = %16
  tail call void @_ZNSt7__cxx1112basic_stringIcSt11char_traitsIcESaIcEE9push_backEc(ptr noundef nonnull align 8 dereferenceable(32) %1, i8 noundef signext 1) #21
  %19 = trunc i32 %.tr74 to i8
  %20 = add i8 %19, -33
  br label %tailrecurse._crit_edge

21:                                               ; preds = %16
  %22 = icmp samesign ult i32 %.tr74, 65
  br i1 %22, label %23, label %26

23:                                               ; preds = %21
  tail call void @_ZNSt7__cxx1112basic_stringIcSt11char_traitsIcESaIcEE9push_backEc(ptr noundef nonnull align 8 dereferenceable(32) %1, i8 noundef signext 1) #21
  %24 = trunc nuw i32 %.tr74 to i8
  %25 = add nsw i8 %24, -43
  br label %tailrecurse._crit_edge

26:                                               ; preds = %21
  %27 = add nsw i32 %.tr74, -91
  %or.cond7 = icmp ult i32 %27, 5
  br i1 %or.cond7, label %28, label %31

28:                                               ; preds = %26
  tail call void @_ZNSt7__cxx1112basic_stringIcSt11char_traitsIcESaIcEE9push_backEc(ptr noundef nonnull align 8 dereferenceable(32) %1, i8 noundef signext 1) #21
  %29 = trunc nuw i32 %.tr74 to i8
  %30 = add nsw i8 %29, -69
  br label %tailrecurse._crit_edge

31:                                               ; preds = %26
  %32 = icmp eq i32 %.tr74, 96
  br i1 %32, label %33, label %34

33:                                               ; preds = %31
  tail call void @_ZNSt7__cxx1112basic_stringIcSt11char_traitsIcESaIcEE9push_backEc(ptr noundef nonnull align 8 dereferenceable(32) %1, i8 noundef signext 2) #21
  br label %tailrecurse._crit_edge

34:                                               ; preds = %31
  %35 = icmp samesign ult i32 %.tr74, 91
  br i1 %35, label %36, label %39

36:                                               ; preds = %34
  tail call void @_ZNSt7__cxx1112basic_stringIcSt11char_traitsIcESaIcEE9push_backEc(ptr noundef nonnull align 8 dereferenceable(32) %1, i8 noundef signext 2) #21
  %37 = trunc nuw i32 %.tr74 to i8
  %38 = add nsw i8 %37, -64
  br label %tailrecurse._crit_edge

39:                                               ; preds = %34
  %40 = icmp samesign ult i32 %.tr74, 128
  br i1 %40, label %41, label %tailrecurse

41:                                               ; preds = %39
  tail call void @_ZNSt7__cxx1112basic_stringIcSt11char_traitsIcESaIcEE9push_backEc(ptr noundef nonnull align 8 dereferenceable(32) %1, i8 noundef signext 2) #21
  %42 = trunc nuw i32 %.tr74 to i8
  %43 = add nsw i8 %42, -96
  br label %tailrecurse._crit_edge

tailrecurse:                                      ; preds = %39
  %44 = tail call noundef nonnull align 8 dereferenceable(32) ptr @_ZNSt7__cxx1112basic_stringIcSt11char_traitsIcESaIcEE6appendEPKc(ptr noundef nonnull align 8 dereferenceable(32) %1, ptr noundef nonnull @.str.14) #21
  %45 = add nsw i32 %.tr74, -128
  %46 = add nuw nsw i32 %accumulator.tr73, 2
  %47 = icmp eq i32 %45, 32
  br i1 %47, label %tailrecurse._crit_edge, label %.lr.ph

tailrecurse._crit_edge:                           ; preds = %tailrecurse, %2, %41, %36, %33, %28, %23, %18, %14, %10, %5
  %.sink = phi i8 [ %43, %41 ], [ %38, %36 ], [ 0, %33 ], [ %30, %28 ], [ %25, %23 ], [ %20, %18 ], [ %15, %14 ], [ %12, %10 ], [ %7, %5 ], [ 3, %2 ], [ 3, %tailrecurse ]
  %accumulator.tr72 = phi i32 [ %accumulator.tr73, %41 ], [ %accumulator.tr73, %36 ], [ %accumulator.tr73, %33 ], [ %accumulator.tr73, %28 ], [ %accumulator.tr73, %23 ], [ %accumulator.tr73, %18 ], [ %accumulator.tr73, %14 ], [ %accumulator.tr73, %10 ], [ %accumulator.tr73, %5 ], [ 0, %2 ], [ %46, %tailrecurse ]
  %.0 = phi i32 [ 2, %41 ], [ 2, %36 ], [ 2, %33 ], [ 2, %28 ], [ 2, %23 ], [ 2, %18 ], [ 2, %14 ], [ 1, %10 ], [ 1, %5 ], [ 1, %2 ], [ 1, %tailrecurse ]
  tail call void @_ZNSt7__cxx1112basic_stringIcSt11char_traitsIcESaIcEE9push_backEc(ptr noundef nonnull align 8 dereferenceable(32) %1, i8 noundef signext %.sink) #21
  %accumulator.ret.tr = add nsw i32 %.0, %accumulator.tr72
  ret i32 %accumulator.ret.tr
}